target datalayout = "e-m:e-p270:32:32-p271:32:32-p272:64:64-i64:64-i128:128-f80:128-n8:16:32:64-S128"
target triple = "x86_64-unknown-linux-gnu"

%struct.V9fsPath = type { i16, ptr }
%struct.V9fsState = type { %struct.anon, %struct.anon.0, ptr, ptr, %struct.FsContext, ptr, i32, i32, [128 x %struct.V9fsPDU], ptr, %struct.CoRwlock, i32, ptr, %struct.V9fsConf, %struct.stat, i64, %struct.qht, %struct.qht, %struct.qht, i64, i16, i64 }
%struct.anon = type { ptr }
%struct.anon.0 = type { ptr }
%struct.FsContext = type { i32, ptr, i32, ptr, %struct.ExtendedOps, ptr, ptr, i32, i32 }
%struct.ExtendedOps = type { ptr }
%struct.V9fsPDU = type { i32, i16, i8, i8, %struct.CoQueue, ptr, %struct.anon.2, i32 }
%struct.CoQueue = type { %struct.anon.1 }
%struct.anon.1 = type { ptr, ptr }
%struct.anon.2 = type { ptr, ptr }
%struct.CoRwlock = type { %struct.CoMutex, i32, %struct.anon.4 }
%struct.CoMutex = type { i32, ptr, %struct.anon.3, %struct.anon.3, i32, i32, ptr }
%struct.anon.3 = type { ptr }
%struct.anon.4 = type { ptr, ptr }
%struct.V9fsConf = type { ptr, ptr }
%struct.stat = type { i64, i64, i64, i32, i32, i32, i32, i64, i64, i64, i64, %struct.timespec, %struct.timespec, %struct.timespec, [3 x i64] }
%struct.timespec = type { i64, i64 }
%struct.qht = type { ptr, ptr, %struct.QemuMutex, i32 }
%struct.QemuMutex = type { %union.pthread_mutex_t, i8 }
%union.pthread_mutex_t = type { %struct.__pthread_mutex_s }
%struct.__pthread_mutex_s = type { i32, i32, i32, i32, i32, i16, i16, %struct.__pthread_internal_list }
%struct.__pthread_internal_list = type { ptr, ptr }
%struct.V9fsFidState = type { i32, i32, %struct.V9fsPath, %union.V9fsFidOpenState, %union.V9fsFidOpenState, i32, i32, i32, i32, i8, %struct.anon.6, %struct.anon.7 }
%union.V9fsFidOpenState = type { %struct.V9fsDir }
%struct.V9fsDir = type { ptr, i32, %struct.CoMutex, %struct.QemuMutex }
%struct.anon.6 = type { ptr }
%struct.anon.7 = type { ptr }

@.str = private unnamed_addr constant [21 x i8] c"../qemu/hw/9pfs/9p.c\00", align 1
@.str.13 = private unnamed_addr constant [14 x i8] c"!(!fidp->ref)\00", align 1
@__PRETTY_FUNCTION__.put_fid = private unnamed_addr constant [39 x i8] c"int put_fid(V9fsPDU *, V9fsFidState *)\00", align 1

; Function Attrs: nounwind sspstrong uwtable
define internal i32 @put_fid(ptr noundef %pdu, ptr noundef %fidp) #0 {
entry:
  %retval = alloca i32, align 4
  %pdu.addr = alloca ptr, align 8
  %fidp.addr = alloca ptr, align 8
  store ptr %pdu, ptr %pdu.addr, align 8
  store ptr %fidp, ptr %fidp.addr, align 8
  %0 = load ptr, ptr %fidp.addr, align 8
  %ref = getelementptr inbounds %struct.V9fsFidState, ptr %0, i32 0, i32 8
  %1 = load i32, ptr %ref, align 4
  %tobool = icmp ne i32 %1, 0
  br i1 %tobool, label %if.then, label %if.else

if.then:                                          ; preds = %entry
  br label %if.end

if.else:                                          ; preds = %entry
  call void @__assert_fail(ptr noundef @.str.13, ptr noundef @.str, i32 noundef 396, ptr noundef @__PRETTY_FUNCTION__.put_fid) #16
  unreachable

if.end:                                           ; preds = %if.then
  %2 = load ptr, ptr %fidp.addr, align 8
  %ref1 = getelementptr inbounds %struct.V9fsFidState, ptr %2, i32 0, i32 8
  %3 = load i32, ptr %ref1, align 4
  %dec = add i32 %3, -1
  store i32 %dec, ptr %ref1, align 4
  %4 = load ptr, ptr %fidp.addr, align 8
  %ref2 = getelementptr inbounds %struct.V9fsFidState, ptr %4, i32 0, i32 8
  %5 = load i32, ptr %ref2, align 4
  %tobool3 = icmp ne i32 %5, 0
  br i1 %tobool3, label %if.end9, label %land.lhs.true

land.lhs.true:                                    ; preds = %if.end
  %6 = load ptr, ptr %fidp.addr, align 8
  %clunked = getelementptr inbounds %struct.V9fsFidState, ptr %6, i32 0, i32 9
  %7 = load i8, ptr %clunked, align 8
  %tobool4 = trunc i8 %7 to i1
  br i1 %tobool4, label %if.then5, label %if.end9

if.then5:                                         ; preds = %land.lhs.true
  %8 = load ptr, ptr %fidp.addr, align 8
  %fid = getelementptr inbounds %struct.V9fsFidState, ptr %8, i32 0, i32 1
  %9 = load i32, ptr %fid, align 4
  %10 = load ptr, ptr %pdu.addr, align 8
  %s = getelementptr inbounds %struct.V9fsPDU, ptr %10, i32 0, i32 5
  %11 = load ptr, ptr %s, align 8
  %root_fid = getelementptr inbounds %struct.V9fsState, ptr %11, i32 0, i32 11
  %12 = load i32, ptr %root_fid, align 8
  %cmp = icmp eq i32 %9, %12
  br i1 %cmp, label %if.then6, label %if.end8

if.then6:                                         ; preds = %if.then5
  %13 = load ptr, ptr %pdu.addr, align 8
  %s7 = getelementptr inbounds %struct.V9fsPDU, ptr %13, i32 0, i32 5
  %14 = load ptr, ptr %s7, align 8
  %migration_blocker = getelementptr inbounds %struct.V9fsState, ptr %14, i32 0, i32 12
  call void @migrate_del_blocker(ptr noundef %migration_blocker)
  br label %if.end8

if.end8:                                          ; preds = %if.then6, %if.then5
  %15 = load ptr, ptr %pdu.addr, align 8
  %16 = load ptr, ptr %fidp.addr, align 8
  %call = call i32 @free_fid(ptr noundef %15, ptr noundef %16)
  store i32 %call, ptr %retval, align 4
  br label %return

if.end9:                                          ; preds = %land.lhs.true, %if.end
  store i32 0, ptr %retval, align 4
  br label %return

return:                                           ; preds = %if.end9, %if.end8
  %17 = load i32, ptr %retval, align 4
  ret i32 %17
}