; Function Attrs: nounwind sspstrong uwtable
define internal i32 @put_fid(ptr noundef %pdu, ptr noundef %fidp) #0 {
entry:
  %ref = getelementptr inbounds nuw i8, ptr %fidp, i64 260
  %0 = load i32, ptr %ref, align 4
  %tobool.not = icmp eq i32 %0, 0
  br i1 %tobool.not, label %if.else, label %if.end

if.else:                                          ; preds = %entry
  tail call void @__assert_fail(ptr noundef nonnull @.str.13, ptr noundef nonnull @.str, i32 noundef 396, ptr noundef nonnull @__PRETTY_FUNCTION__.put_fid) #28
  unreachable

if.end:                                           ; preds = %entry
  %dec = add i32 %0, -1
  store i32 %dec, ptr %ref, align 4
  %tobool3.not = icmp eq i32 %dec, 0
  br i1 %tobool3.not, label %land.lhs.true, label %return

land.lhs.true:                                    ; preds = %if.end
  %clunked = getelementptr inbounds nuw i8, ptr %fidp, i64 264
  %1 = load i8, ptr %clunked, align 8
  %tobool4 = trunc i8 %1 to i1
  br i1 %tobool4, label %if.then5, label %return

if.then5:                                         ; preds = %land.lhs.true
  %fid = getelementptr inbounds nuw i8, ptr %fidp, i64 4
  %2 = load i32, ptr %fid, align 4
  %s = getelementptr inbounds nuw i8, ptr %pdu, i64 24
  %3 = load ptr, ptr %s, align 8
  %root_fid = getelementptr inbounds nuw i8, ptr %3, i64 7360
  %4 = load i32, ptr %root_fid, align 8
  %cmp = icmp eq i32 %2, %4
  br i1 %cmp, label %if.then6, label %if.end8

if.then6:                                         ; preds = %if.then5
  %migration_blocker = getelementptr inbounds nuw i8, ptr %3, i64 7368
  tail call void @migrate_del_blocker(ptr noundef nonnull %migration_blocker) #24
  br label %if.end8

if.end8:                                          ; preds = %if.then6, %if.then5
  %call = tail call i32 @free_fid(ptr noundef nonnull %pdu, ptr noundef nonnull %fidp)
  br label %return

return:                                           ; preds = %if.end, %land.lhs.true, %if.end8
  %retval.0 = phi i32 [ %call, %if.end8 ], [ 0, %land.lhs.true ], [ 0, %if.end ]
  ret i32 %retval.0
}